target datalayout = "e-m:e-p270:32:32-p271:32:32-p272:64:64-i64:64-i128:128-f80:128-n8:16:32:64-S128"
target triple = "x86_64-pc-linux-gnu"

%struct.PyVarObject = type { %struct._object, i64 }
%struct._object = type { %union.anon, ptr }
%union.anon = type { i64 }
%struct.PyFunctionObject = type { %struct._object, ptr, ptr, ptr, ptr, ptr, ptr, ptr, ptr, ptr, ptr, ptr, ptr, ptr, ptr, ptr, ptr, i32 }
%struct.PyCodeObject = type { %struct.PyVarObject, ptr, ptr, ptr, i32, i32, i32, i32, i32, i32, i32, i32, i32, i32, i32, i32, ptr, ptr, ptr, ptr, ptr, ptr, ptr, ptr, ptr, i64, ptr, i64, i32, ptr, [1 x i8] }

@_Py_tss_tstate = external thread_local global ptr, align 8

; Function Attrs: inlinehint nounwind uwtable
define internal ptr @_PyThreadState_GET() #1 {
  %1 = call align 8 ptr @llvm.threadlocal.address.p0(ptr align 8 @_Py_tss_tstate)
  %2 = load ptr, ptr %1, align 8, !tbaa !4
  ret ptr %2
}

; Function Attrs: inlinehint nounwind uwtable
define internal i64 @_PyVectorcall_NARGS(i64 noundef %0) #1 {
  %2 = alloca i64, align 8
  store i64 %0, ptr %2, align 8, !tbaa !37
  %3 = load i64, ptr %2, align 8, !tbaa !37
  %4 = and i64 %3, 9223372036854775807
  ret i64 %4
}

; Function Attrs: nounwind uwtable
define hidden ptr @_PyFunction_Vectorcall(ptr noundef %0, ptr noundef %1, i64 noundef %2, ptr noundef %3) #0 {
  %5 = alloca ptr, align 8
  %6 = alloca ptr, align 8
  %7 = alloca ptr, align 8
  %8 = alloca i64, align 8
  %9 = alloca ptr, align 8
  %10 = alloca ptr, align 8
  %11 = alloca i64, align 8
  %12 = alloca ptr, align 8
  %13 = alloca i32, align 4
  store ptr %0, ptr %6, align 8, !tbaa !9
  store ptr %1, ptr %7, align 8, !tbaa !36
  store i64 %2, ptr %8, align 8, !tbaa !37
  store ptr %3, ptr %9, align 8, !tbaa !9
  call void @llvm.lifetime.start.p0(i64 8, ptr %10) #9
  %14 = load ptr, ptr %6, align 8, !tbaa !9
  store ptr %14, ptr %10, align 8, !tbaa !38
  call void @llvm.lifetime.start.p0(i64 8, ptr %11) #9
  %15 = load i64, ptr %8, align 8, !tbaa !37
  %16 = call i64 @_PyVectorcall_NARGS(i64 noundef %15)
  store i64 %16, ptr %11, align 8, !tbaa !37
  call void @llvm.lifetime.start.p0(i64 8, ptr %12) #9
  %17 = call ptr @_PyThreadState_GET()
  store ptr %17, ptr %12, align 8, !tbaa !4
  %18 = load ptr, ptr %10, align 8, !tbaa !38
  %19 = getelementptr inbounds nuw %struct.PyFunctionObject, ptr %18, i32 0, i32 5
  %20 = load ptr, ptr %19, align 8, !tbaa !52
  %21 = getelementptr inbounds nuw %struct.PyCodeObject, ptr %20, i32 0, i32 4
  %22 = load i32, ptr %21, align 8, !tbaa !54
  %23 = and i32 %22, 1
  %24 = icmp ne i32 %23, 0
  br i1 %24, label %25, label %32

25:                                               ; preds = %4
  %26 = load ptr, ptr %12, align 8, !tbaa !4
  %27 = load ptr, ptr %10, align 8, !tbaa !38
  %28 = load ptr, ptr %7, align 8, !tbaa !36
  %29 = load i64, ptr %11, align 8, !tbaa !37
  %30 = load ptr, ptr %9, align 8, !tbaa !9
  %31 = call ptr @_PyEval_Vector(ptr noundef %26, ptr noundef %27, ptr noundef null, ptr noundef %28, i64 noundef %29, ptr noundef %30)
  store ptr %31, ptr %5, align 8
  store i32 1, ptr %13, align 4
  br label %42

32:                                               ; preds = %4
  %33 = load ptr, ptr %12, align 8, !tbaa !4
  %34 = load ptr, ptr %10, align 8, !tbaa !38
  %35 = load ptr, ptr %10, align 8, !tbaa !38
  %36 = getelementptr inbounds nuw %struct.PyFunctionObject, ptr %35, i32 0, i32 1
  %37 = load ptr, ptr %36, align 8, !tbaa !56
  %38 = load ptr, ptr %7, align 8, !tbaa !36
  %39 = load i64, ptr %11, align 8, !tbaa !37
  %40 = load ptr, ptr %9, align 8, !tbaa !9
  %41 = call ptr @_PyEval_Vector(ptr noundef %33, ptr noundef %34, ptr noundef %37, ptr noundef %38, i64 noundef %39, ptr noundef %40)
  store ptr %41, ptr %5, align 8
  store i32 1, ptr %13, align 4
  br label %42

42:                                               ; preds = %32, %25
  call void @llvm.lifetime.end.p0(i64 8, ptr %12) #9
  call void @llvm.lifetime.end.p0(i64 8, ptr %11) #9
  call void @llvm.lifetime.end.p0(i64 8, ptr %10) #9
  %43 = load ptr, ptr %5, align 8
  ret ptr %43
}