; Function Attrs: nounwind uwtable
define hidden ptr @_PyFunction_Vectorcall(ptr noundef %0, ptr noundef %1, i64 noundef %2, ptr noundef %3) local_unnamed_addr #0 {
  %5 = tail call align 8 ptr @llvm.threadlocal.address.p0(ptr align 8 @_Py_tss_tstate)
  %6 = load ptr, ptr %5, align 8, !tbaa !25
  %7 = getelementptr inbounds nuw i8, ptr %0, i64 48
  %8 = load ptr, ptr %7, align 8, !tbaa !48
  %9 = getelementptr inbounds nuw i8, ptr %8, i64 48
  %10 = load i32, ptr %9, align 8, !tbaa !50
  %11 = and i32 %10, 1
  %.not = icmp eq i32 %11, 0
  br i1 %.not, label %12, label %15

12:                                               ; preds = %4
  %13 = getelementptr inbounds nuw i8, ptr %0, i64 16
  %14 = load ptr, ptr %13, align 8, !tbaa !52
  br label %15

15:                                               ; preds = %4, %12
  %.sink = phi ptr [ %14, %12 ], [ null, %4 ]
  %16 = and i64 %2, 9223372036854775807
  %17 = tail call ptr @_PyEval_Vector(ptr noundef %6, ptr noundef nonnull %0, ptr noundef %.sink, ptr noundef %1, i64 noundef %16, ptr noundef %3) #10
  ret ptr %17
}